target datalayout = "e-m:e-p270:32:32-p271:32:32-p272:64:64-i64:64-i128:128-f80:128-n8:16:32:64-S128"
target triple = "x86_64-pc-linux-gnu"

%class.RawRead = type { %class.Array, ptr, i64, i64, ptr }
%class.Array = type { ptr, i64, i64, i64 }

; Function Attrs: inlinehint mustprogress nounwind uwtable
define linkonce_odr noundef nonnull align 1 dereferenceable(1) ptr @_ZNK5ArrayIhEixEm(ptr noundef nonnull align 8 dereferenceable(32) %0, i64 noundef %1) #3 comdat align 2 {
  %3 = alloca ptr, align 8
  %4 = alloca i64, align 8
  store ptr %0, ptr %3, align 8, !tbaa !15
  store i64 %1, ptr %4, align 8, !tbaa !23
  %5 = load ptr, ptr %3, align 8
  %6 = getelementptr inbounds nuw %class.Array, ptr %5, i32 0, i32 0
  %7 = load ptr, ptr %6, align 8, !tbaa !20
  %8 = load i64, ptr %4, align 8, !tbaa !23
  %9 = getelementptr inbounds nuw i8, ptr %7, i64 %8
  ret ptr %9
}

; Function Attrs: mustprogress uwtable
define noundef zeroext i8 @_ZN7RawRead4Get1Ev(ptr noundef nonnull align 8 dereferenceable(64) %0) #0 align 2 {
  %2 = alloca ptr, align 8
  store ptr %0, ptr %2, align 8, !tbaa !3
  %3 = load ptr, ptr %2, align 8
  %4 = getelementptr inbounds nuw %class.RawRead, ptr %3, i32 0, i32 3
  %5 = load i64, ptr %4, align 8, !tbaa !17
  %6 = getelementptr inbounds nuw %class.RawRead, ptr %3, i32 0, i32 2
  %7 = load i64, ptr %6, align 8, !tbaa !18
  %8 = icmp ult i64 %5, %7
  br i1 %8, label %9, label %17

9:                                                ; preds = %1
  %10 = getelementptr inbounds nuw %class.RawRead, ptr %3, i32 0, i32 0
  %11 = getelementptr inbounds nuw %class.RawRead, ptr %3, i32 0, i32 3
  %12 = load i64, ptr %11, align 8, !tbaa !17
  %13 = add i64 %12, 1
  store i64 %13, ptr %11, align 8, !tbaa !17
  %14 = call noundef nonnull align 1 dereferenceable(1) ptr @_ZNK5ArrayIhEixEm(ptr noundef nonnull align 8 dereferenceable(32) %10, i64 noundef %12)
  %15 = load i8, ptr %14, align 1, !tbaa !29
  %16 = zext i8 %15 to i32
  br label %18

17:                                               ; preds = %1
  br label %18

18:                                               ; preds = %17, %9
  %19 = phi i32 [ %16, %9 ], [ 0, %17 ]
  %20 = trunc i32 %19 to i8
  ret i8 %20
}