; Function Attrs: mustprogress nofree norecurse nosync nounwind willreturn memory(read, argmem: readwrite, inaccessiblemem: none) uwtable
define noundef zeroext i8 @_ZN7RawRead4Get1Ev(ptr noundef nonnull align 8 captures(none) dereferenceable(64) %0) local_unnamed_addr #4 align 2 {
  %2 = getelementptr inbounds nuw i8, ptr %0, i64 48
  %3 = load i64, ptr %2, align 8, !tbaa !21
  %4 = getelementptr inbounds nuw i8, ptr %0, i64 40
  %5 = load i64, ptr %4, align 8, !tbaa !15
  %6 = icmp ult i64 %3, %5
  br i1 %6, label %7, label %12

7:                                                ; preds = %1
  %8 = add nuw i64 %3, 1
  store i64 %8, ptr %2, align 8, !tbaa !21
  %9 = load ptr, ptr %0, align 8, !tbaa !17
  %10 = getelementptr inbounds nuw i8, ptr %9, i64 %3
  %11 = load i8, ptr %10, align 1, !tbaa !22
  br label %12

12:                                               ; preds = %1, %7
  %13 = phi i8 [ %11, %7 ], [ 0, %1 ]
  ret i8 %13
}